target datalayout = "e-m:e-p270:32:32-p271:32:32-p272:64:64-i64:64-i128:128-f80:128-n8:16:32:64-S128"
target triple = "x86_64-pc-linux-gnu"

%"class.pbrt::Point2" = type { %"class.pbrt::Tuple2" }
%"class.pbrt::Tuple2" = type { float, float }
%"class.pstd::optional.16" = type { %"union.std::aligned_storage<200, 8>::type", i8, [7 x i8] }
%"union.std::aligned_storage<200, 8>::type" = type { [200 x i8] }
%class.anon.19 = type { ptr, ptr, ptr }
%"class.pbrt::TaggedPointer" = type { i64 }

@.str.95 = private unnamed_addr constant [112 x i8] c"generated/home/dtcxzyw/WorkSpace/Projects/compilers/llvm-opt-benchmark/bench/pbrt-v4/pbrt-v4/src/pbrt/cameras.h\00", align 1
@.str.102 = private unnamed_addr constant [48 x i8] c"SampleWi() unimplemented for OrthographicCamera\00", align 1
@.str.103 = private unnamed_addr constant [45 x i8] c"SampleWi() unimplemented for SphericalCamera\00", align 1
@.str.104 = private unnamed_addr constant [45 x i8] c"SampleWi() unimplemented for RealisticCamera\00", align 1

; Function Attrs: mustprogress uwtable
define linkonce_odr dso_local void @_ZNK4pbrt15RealisticCamera8SampleWiERKNS_11InteractionENS_6Point2IfEERNS_18SampledWavelengthsE(ptr dead_on_unwind noalias writable sret(%"class.pstd::optional.16") align 8 %0, ptr noundef nonnull align 8 dereferenceable(1128) %1, ptr noundef nonnull align 8 dereferenceable(80) %2, <2 x float> %3, ptr noundef nonnull align 4 dereferenceable(32) %4) #3 comdat align 2 {
  %6 = alloca ptr, align 8
  %7 = alloca %"class.pbrt::Point2", align 4
  %8 = alloca ptr, align 8
  %9 = alloca ptr, align 8
  %10 = alloca ptr, align 8
  store ptr %0, ptr %6, align 8
  %11 = getelementptr inbounds nuw %"class.pbrt::Point2", ptr %7, i32 0, i32 0
  store <2 x float> %3, ptr %11, align 4
  store ptr %1, ptr %8, align 8, !tbaa !197
  store ptr %2, ptr %9, align 8, !tbaa !69
  store ptr %4, ptr %10, align 8, !tbaa !51
  call void @_ZN4pbrt8LogFatalENS_8LogLevelEPKciS2_(i32 noundef 2, ptr noundef @.str.95, i32 noundef 503, ptr noundef @.str.104) #22
  unreachable
}

; Function Attrs: mustprogress uwtable
define linkonce_odr dso_local void @_ZNK4pbrt15SphericalCamera8SampleWiERKNS_11InteractionENS_6Point2IfEERNS_18SampledWavelengthsE(ptr dead_on_unwind noalias writable sret(%"class.pstd::optional.16") align 8 %0, ptr noundef nonnull align 8 dereferenceable(900) %1, ptr noundef nonnull align 8 dereferenceable(80) %2, <2 x float> %3, ptr noundef nonnull align 4 dereferenceable(32) %4) #3 comdat align 2 {
  %6 = alloca ptr, align 8
  %7 = alloca %"class.pbrt::Point2", align 4
  %8 = alloca ptr, align 8
  %9 = alloca ptr, align 8
  %10 = alloca ptr, align 8
  store ptr %0, ptr %6, align 8
  %11 = getelementptr inbounds nuw %"class.pbrt::Point2", ptr %7, i32 0, i32 0
  store <2 x float> %3, ptr %11, align 4
  store ptr %1, ptr %8, align 8, !tbaa !201
  store ptr %2, ptr %9, align 8, !tbaa !69
  store ptr %4, ptr %10, align 8, !tbaa !51
  call void @_ZN4pbrt8LogFatalENS_8LogLevelEPKciS2_(i32 noundef 2, ptr noundef @.str.95, i32 noundef 448, ptr noundef @.str.103) #22
  unreachable
}

; Function Attrs: mustprogress uwtable
define linkonce_odr dso_local void @_ZNK4pbrt18OrthographicCamera8SampleWiERKNS_11InteractionENS_6Point2IfEERNS_18SampledWavelengthsE(ptr dead_on_unwind noalias writable sret(%"class.pstd::optional.16") align 8 %0, ptr noundef nonnull align 8 dereferenceable(1440) %1, ptr noundef nonnull align 8 dereferenceable(80) %2, <2 x float> %3, ptr noundef nonnull align 4 dereferenceable(32) %4) #3 comdat align 2 {
  %6 = alloca ptr, align 8
  %7 = alloca %"class.pbrt::Point2", align 4
  %8 = alloca ptr, align 8
  %9 = alloca ptr, align 8
  %10 = alloca ptr, align 8
  store ptr %0, ptr %6, align 8
  %11 = getelementptr inbounds nuw %"class.pbrt::Point2", ptr %7, i32 0, i32 0
  store <2 x float> %3, ptr %11, align 4
  store ptr %1, ptr %8, align 8, !tbaa !176
  store ptr %2, ptr %9, align 8, !tbaa !69
  store ptr %4, ptr %10, align 8, !tbaa !51
  call void @_ZN4pbrt8LogFatalENS_8LogLevelEPKciS2_(i32 noundef 2, ptr noundef @.str.95, i32 noundef 328, ptr noundef @.str.102) #22
  unreachable
}

; Function Attrs: inlinehint mustprogress uwtable
define internal void @"_ZZNK4pbrt6Camera8SampleWiERKNS_11InteractionENS_6Point2IfEERNS_18SampledWavelengthsEENK3$_0clIPKNS_15RealisticCameraEEEDaT_"(ptr dead_on_unwind noalias writable sret(%"class.pstd::optional.16") align 8 %0, ptr noundef nonnull align 8 dereferenceable(24) %1, ptr noundef %2) #11 align 2 {
  %4 = alloca ptr, align 8
  %5 = alloca ptr, align 8
  %6 = alloca ptr, align 8
  %7 = alloca %"class.pbrt::Point2", align 4
  store ptr %0, ptr %4, align 8
  store ptr %1, ptr %5, align 8, !tbaa !57
  store ptr %2, ptr %6, align 8, !tbaa !197
  %8 = load ptr, ptr %5, align 8
  %9 = load ptr, ptr %6, align 8, !tbaa !197
  %10 = getelementptr inbounds nuw %class.anon.19, ptr %8, i32 0, i32 0
  %11 = load ptr, ptr %10, align 8, !tbaa !423
  %12 = getelementptr inbounds nuw %class.anon.19, ptr %8, i32 0, i32 1
  %13 = load ptr, ptr %12, align 8, !tbaa !425
  call void @llvm.memcpy.p0.p0.i64(ptr align 4 %7, ptr align 4 %13, i64 8, i1 false)
  %14 = getelementptr inbounds nuw %class.anon.19, ptr %8, i32 0, i32 2
  %15 = load ptr, ptr %14, align 8, !tbaa !426
  %16 = getelementptr inbounds nuw %"class.pbrt::Point2", ptr %7, i32 0, i32 0
  %17 = load <2 x float>, ptr %16, align 4
  call void @_ZNK4pbrt15RealisticCamera8SampleWiERKNS_11InteractionENS_6Point2IfEERNS_18SampledWavelengthsE(ptr dead_on_unwind writable sret(%"class.pstd::optional.16") align 8 %0, ptr noundef nonnull align 8 dereferenceable(1128) %9, ptr noundef nonnull align 8 dereferenceable(80) %11, <2 x float> %17, ptr noundef nonnull align 4 dereferenceable(32) %15)
  ret void
}

; Function Attrs: inlinehint mustprogress uwtable
define internal void @"_ZZNK4pbrt6Camera8SampleWiERKNS_11InteractionENS_6Point2IfEERNS_18SampledWavelengthsEENK3$_0clIPKNS_15SphericalCameraEEEDaT_"(ptr dead_on_unwind noalias writable sret(%"class.pstd::optional.16") align 8 %0, ptr noundef nonnull align 8 dereferenceable(24) %1, ptr noundef %2) #11 align 2 {
  %4 = alloca ptr, align 8
  %5 = alloca ptr, align 8
  %6 = alloca ptr, align 8
  %7 = alloca %"class.pbrt::Point2", align 4
  store ptr %0, ptr %4, align 8
  store ptr %1, ptr %5, align 8, !tbaa !57
  store ptr %2, ptr %6, align 8, !tbaa !201
  %8 = load ptr, ptr %5, align 8
  %9 = load ptr, ptr %6, align 8, !tbaa !201
  %10 = getelementptr inbounds nuw %class.anon.19, ptr %8, i32 0, i32 0
  %11 = load ptr, ptr %10, align 8, !tbaa !423
  %12 = getelementptr inbounds nuw %class.anon.19, ptr %8, i32 0, i32 1
  %13 = load ptr, ptr %12, align 8, !tbaa !425
  call void @llvm.memcpy.p0.p0.i64(ptr align 4 %7, ptr align 4 %13, i64 8, i1 false)
  %14 = getelementptr inbounds nuw %class.anon.19, ptr %8, i32 0, i32 2
  %15 = load ptr, ptr %14, align 8, !tbaa !426
  %16 = getelementptr inbounds nuw %"class.pbrt::Point2", ptr %7, i32 0, i32 0
  %17 = load <2 x float>, ptr %16, align 4
  call void @_ZNK4pbrt15SphericalCamera8SampleWiERKNS_11InteractionENS_6Point2IfEERNS_18SampledWavelengthsE(ptr dead_on_unwind writable sret(%"class.pstd::optional.16") align 8 %0, ptr noundef nonnull align 8 dereferenceable(900) %9, ptr noundef nonnull align 8 dereferenceable(80) %11, <2 x float> %17, ptr noundef nonnull align 4 dereferenceable(32) %15)
  ret void
}

; Function Attrs: inlinehint mustprogress uwtable
define internal void @"_ZZNK4pbrt6Camera8SampleWiERKNS_11InteractionENS_6Point2IfEERNS_18SampledWavelengthsEENK3$_0clIPKNS_18OrthographicCameraEEEDaT_"(ptr dead_on_unwind noalias writable sret(%"class.pstd::optional.16") align 8 %0, ptr noundef nonnull align 8 dereferenceable(24) %1, ptr noundef %2) #11 align 2 {
  %4 = alloca ptr, align 8
  %5 = alloca ptr, align 8
  %6 = alloca ptr, align 8
  %7 = alloca %"class.pbrt::Point2", align 4
  store ptr %0, ptr %4, align 8
  store ptr %1, ptr %5, align 8, !tbaa !57
  store ptr %2, ptr %6, align 8, !tbaa !176
  %8 = load ptr, ptr %5, align 8
  %9 = load ptr, ptr %6, align 8, !tbaa !176
  %10 = getelementptr inbounds nuw %class.anon.19, ptr %8, i32 0, i32 0
  %11 = load ptr, ptr %10, align 8, !tbaa !423
  %12 = getelementptr inbounds nuw %class.anon.19, ptr %8, i32 0, i32 1
  %13 = load ptr, ptr %12, align 8, !tbaa !425
  call void @llvm.memcpy.p0.p0.i64(ptr align 4 %7, ptr align 4 %13, i64 8, i1 false)
  %14 = getelementptr inbounds nuw %class.anon.19, ptr %8, i32 0, i32 2
  %15 = load ptr, ptr %14, align 8, !tbaa !426
  %16 = getelementptr inbounds nuw %"class.pbrt::Point2", ptr %7, i32 0, i32 0
  %17 = load <2 x float>, ptr %16, align 4
  call void @_ZNK4pbrt18OrthographicCamera8SampleWiERKNS_11InteractionENS_6Point2IfEERNS_18SampledWavelengthsE(ptr dead_on_unwind writable sret(%"class.pstd::optional.16") align 8 %0, ptr noundef nonnull align 8 dereferenceable(1440) %9, ptr noundef nonnull align 8 dereferenceable(80) %11, <2 x float> %17, ptr noundef nonnull align 4 dereferenceable(32) %15)
  ret void
}

; Function Attrs: inlinehint mustprogress uwtable
define internal void @"_ZZNK4pbrt6Camera8SampleWiERKNS_11InteractionENS_6Point2IfEERNS_18SampledWavelengthsEENK3$_0clIPKNS_17PerspectiveCameraEEEDaT_"(ptr dead_on_unwind noalias writable sret(%"class.pstd::optional.16") align 8 %0, ptr noundef nonnull align 8 dereferenceable(24) %1, ptr noundef %2) #11 align 2 {
  %4 = alloca ptr, align 8
  %5 = alloca ptr, align 8
  %6 = alloca ptr, align 8
  %7 = alloca %"class.pbrt::Point2", align 4
  store ptr %0, ptr %4, align 8
  store ptr %1, ptr %5, align 8, !tbaa !57
  store ptr %2, ptr %6, align 8, !tbaa !174
  %8 = load ptr, ptr %5, align 8
  %9 = load ptr, ptr %6, align 8, !tbaa !174
  %10 = getelementptr inbounds nuw %class.anon.19, ptr %8, i32 0, i32 0
  %11 = load ptr, ptr %10, align 8, !tbaa !423
  %12 = getelementptr inbounds nuw %class.anon.19, ptr %8, i32 0, i32 1
  %13 = load ptr, ptr %12, align 8, !tbaa !425
  call void @llvm.memcpy.p0.p0.i64(ptr align 4 %7, ptr align 4 %13, i64 8, i1 false)
  %14 = getelementptr inbounds nuw %class.anon.19, ptr %8, i32 0, i32 2
  %15 = load ptr, ptr %14, align 8, !tbaa !426
  %16 = getelementptr inbounds nuw %"class.pbrt::Point2", ptr %7, i32 0, i32 0
  %17 = load <2 x float>, ptr %16, align 4
  call void @_ZNK4pbrt17PerspectiveCamera8SampleWiERKNS_11InteractionENS_6Point2IfEERNS_18SampledWavelengthsE(ptr dead_on_unwind writable sret(%"class.pstd::optional.16") align 8 %0, ptr noundef nonnull align 8 dereferenceable(1448) %9, ptr noundef nonnull align 8 dereferenceable(80) %11, <2 x float> %17, ptr noundef nonnull align 4 dereferenceable(32) %15)
  ret void
}

; Function Attrs: mustprogress uwtable
define internal void @"_ZN4pbrt6detail8DispatchIRZNKS_6Camera8SampleWiERKNS_11InteractionENS_6Point2IfEERNS_18SampledWavelengthsEE3$_0N4pstd8optionalINS_14CameraWiSampleEEENS_17PerspectiveCameraENS_18OrthographicCameraENS_15SphericalCameraENS_15RealisticCameraEEET0_OT_PKvi"(ptr dead_on_unwind noalias writable sret(%"class.pstd::optional.16") align 8 %0, ptr noundef nonnull align 8 dereferenceable(24) %1, ptr noundef %2, i32 noundef %3) #1 {
  %5 = alloca ptr, align 8
  %6 = alloca ptr, align 8
  %7 = alloca ptr, align 8
  %8 = alloca i32, align 4
  store ptr %0, ptr %5, align 8
  store ptr %1, ptr %6, align 8, !tbaa !57
  store ptr %2, ptr %7, align 8, !tbaa !57
  store i32 %3, ptr %8, align 4, !tbaa !48
  br label %9

9:                                                ; preds = %4
  br label %10

10:                                               ; preds = %9
  br label %11

11:                                               ; preds = %10
  br label %12

12:                                               ; preds = %11
  %13 = load i32, ptr %8, align 4, !tbaa !48
  switch i32 %13, label %23 [
    i32 0, label %14
    i32 1, label %17
    i32 2, label %20
  ]

14:                                               ; preds = %12
  %15 = load ptr, ptr %6, align 8, !tbaa !57
  %16 = load ptr, ptr %7, align 8, !tbaa !57
  call void @"_ZZNK4pbrt6Camera8SampleWiERKNS_11InteractionENS_6Point2IfEERNS_18SampledWavelengthsEENK3$_0clIPKNS_17PerspectiveCameraEEEDaT_"(ptr dead_on_unwind writable sret(%"class.pstd::optional.16") align 8 %0, ptr noundef nonnull align 8 dereferenceable(24) %15, ptr noundef %16)
  br label %26

17:                                               ; preds = %12
  %18 = load ptr, ptr %6, align 8, !tbaa !57
  %19 = load ptr, ptr %7, align 8, !tbaa !57
  call void @"_ZZNK4pbrt6Camera8SampleWiERKNS_11InteractionENS_6Point2IfEERNS_18SampledWavelengthsEENK3$_0clIPKNS_18OrthographicCameraEEEDaT_"(ptr dead_on_unwind writable sret(%"class.pstd::optional.16") align 8 %0, ptr noundef nonnull align 8 dereferenceable(24) %18, ptr noundef %19)
  br label %26

20:                                               ; preds = %12
  %21 = load ptr, ptr %6, align 8, !tbaa !57
  %22 = load ptr, ptr %7, align 8, !tbaa !57
  call void @"_ZZNK4pbrt6Camera8SampleWiERKNS_11InteractionENS_6Point2IfEERNS_18SampledWavelengthsEENK3$_0clIPKNS_15SphericalCameraEEEDaT_"(ptr dead_on_unwind writable sret(%"class.pstd::optional.16") align 8 %0, ptr noundef nonnull align 8 dereferenceable(24) %21, ptr noundef %22)
  br label %26

23:                                               ; preds = %12
  %24 = load ptr, ptr %6, align 8, !tbaa !57
  %25 = load ptr, ptr %7, align 8, !tbaa !57
  call void @"_ZZNK4pbrt6Camera8SampleWiERKNS_11InteractionENS_6Point2IfEERNS_18SampledWavelengthsEENK3$_0clIPKNS_15RealisticCameraEEEDaT_"(ptr dead_on_unwind writable sret(%"class.pstd::optional.16") align 8 %0, ptr noundef nonnull align 8 dereferenceable(24) %24, ptr noundef %25)
  br label %26

26:                                               ; preds = %23, %20, %17, %14
  ret void
}

; Function Attrs: mustprogress nounwind uwtable
define linkonce_odr dso_local noundef i32 @_ZNK4pbrt13TaggedPointerIJNS_17PerspectiveCameraENS_18OrthographicCameraENS_15SphericalCameraENS_15RealisticCameraEEE3TagEv(ptr noundef nonnull align 8 dereferenceable(8) %0) #6 comdat align 2 {
  %2 = alloca ptr, align 8
  store ptr %0, ptr %2, align 8, !tbaa !55
  %3 = load ptr, ptr %2, align 8
  %4 = getelementptr inbounds nuw %"class.pbrt::TaggedPointer", ptr %3, i32 0, i32 0
  %5 = load i64, ptr %4, align 8, !tbaa !75
  %6 = and i64 %5, -144115188075855872
  %7 = lshr i64 %6, 57
  %8 = trunc i64 %7 to i32
  ret i32 %8
}

; Function Attrs: mustprogress nounwind uwtable
define linkonce_odr dso_local noundef ptr @_ZNK4pbrt13TaggedPointerIJNS_17PerspectiveCameraENS_18OrthographicCameraENS_15SphericalCameraENS_15RealisticCameraEEE3ptrEv(ptr noundef nonnull align 8 dereferenceable(8) %0) #6 comdat align 2 {
  %2 = alloca ptr, align 8
  store ptr %0, ptr %2, align 8, !tbaa !55
  %3 = load ptr, ptr %2, align 8
  %4 = getelementptr inbounds nuw %"class.pbrt::TaggedPointer", ptr %3, i32 0, i32 0
  %5 = load i64, ptr %4, align 8, !tbaa !75
  %6 = and i64 %5, 144115188075855871
  %7 = inttoptr i64 %6 to ptr
  ret ptr %7
}

; Function Attrs: mustprogress uwtable
define internal void @"_ZNK4pbrt13TaggedPointerIJNS_17PerspectiveCameraENS_18OrthographicCameraENS_15SphericalCameraENS_15RealisticCameraEEE8DispatchIRZNKS_6Camera8SampleWiERKNS_11InteractionENS_6Point2IfEERNS_18SampledWavelengthsEE3$_0EEDcOT_"(ptr dead_on_unwind noalias writable sret(%"class.pstd::optional.16") align 8 %0, ptr noundef nonnull align 8 dereferenceable(8) %1, ptr noundef nonnull align 8 dereferenceable(24) %2) #1 align 2 {
  %4 = alloca ptr, align 8
  %5 = alloca ptr, align 8
  %6 = alloca ptr, align 8
  store ptr %0, ptr %4, align 8
  store ptr %1, ptr %5, align 8, !tbaa !55
  store ptr %2, ptr %6, align 8, !tbaa !57
  %7 = load ptr, ptr %5, align 8
  br label %8

8:                                                ; preds = %3
  br label %9

9:                                                ; preds = %8
  %10 = load ptr, ptr %6, align 8, !tbaa !57
  %11 = call noundef ptr @_ZNK4pbrt13TaggedPointerIJNS_17PerspectiveCameraENS_18OrthographicCameraENS_15SphericalCameraENS_15RealisticCameraEEE3ptrEv(ptr noundef nonnull align 8 dereferenceable(8) %7)
  %12 = call noundef i32 @_ZNK4pbrt13TaggedPointerIJNS_17PerspectiveCameraENS_18OrthographicCameraENS_15SphericalCameraENS_15RealisticCameraEEE3TagEv(ptr noundef nonnull align 8 dereferenceable(8) %7)
  %13 = sub i32 %12, 1
  call void @"_ZN4pbrt6detail8DispatchIRZNKS_6Camera8SampleWiERKNS_11InteractionENS_6Point2IfEERNS_18SampledWavelengthsEE3$_0N4pstd8optionalINS_14CameraWiSampleEEENS_17PerspectiveCameraENS_18OrthographicCameraENS_15SphericalCameraENS_15RealisticCameraEEET0_OT_PKvi"(ptr dead_on_unwind writable sret(%"class.pstd::optional.16") align 8 %0, ptr noundef nonnull align 8 dereferenceable(24) %10, ptr noundef %11, i32 noundef %13)
  ret void
}

; Function Attrs: mustprogress uwtable
define dso_local void @_ZNK4pbrt6Camera8SampleWiERKNS_11InteractionENS_6Point2IfEERNS_18SampledWavelengthsE(ptr dead_on_unwind noalias writable sret(%"class.pstd::optional.16") align 8 %0, ptr noundef nonnull align 8 dereferenceable(8) %1, ptr noundef nonnull align 8 dereferenceable(80) %2, <2 x float> %3, ptr noundef nonnull align 4 dereferenceable(32) %4) #3 align 2 {
  %6 = alloca ptr, align 8
  %7 = alloca %"class.pbrt::Point2", align 4
  %8 = alloca ptr, align 8
  %9 = alloca ptr, align 8
  %10 = alloca ptr, align 8
  %11 = alloca %class.anon.19, align 8
  store ptr %0, ptr %6, align 8
  %12 = getelementptr inbounds nuw %"class.pbrt::Point2", ptr %7, i32 0, i32 0
  store <2 x float> %3, ptr %12, align 4
  store ptr %1, ptr %8, align 8, !tbaa !49
  store ptr %2, ptr %9, align 8, !tbaa !69
  store ptr %4, ptr %10, align 8, !tbaa !51
  %13 = load ptr, ptr %8, align 8
  call void @llvm.lifetime.start.p0(i64 24, ptr %11) #15
  %14 = getelementptr inbounds nuw %class.anon.19, ptr %11, i32 0, i32 0
  %15 = load ptr, ptr %9, align 8, !tbaa !69
  store ptr %15, ptr %14, align 8, !tbaa !69
  %16 = getelementptr inbounds nuw %class.anon.19, ptr %11, i32 0, i32 1
  store ptr %7, ptr %16, align 8, !tbaa !60
  %17 = getelementptr inbounds nuw %class.anon.19, ptr %11, i32 0, i32 2
  %18 = load ptr, ptr %10, align 8, !tbaa !51
  store ptr %18, ptr %17, align 8, !tbaa !51
  call void @"_ZNK4pbrt13TaggedPointerIJNS_17PerspectiveCameraENS_18OrthographicCameraENS_15SphericalCameraENS_15RealisticCameraEEE8DispatchIRZNKS_6Camera8SampleWiERKNS_11InteractionENS_6Point2IfEERNS_18SampledWavelengthsEE3$_0EEDcOT_"(ptr dead_on_unwind writable sret(%"class.pstd::optional.16") align 8 %0, ptr noundef nonnull align 8 dereferenceable(8) %13, ptr noundef nonnull align 8 dereferenceable(24) %11)
  call void @llvm.lifetime.end.p0(i64 24, ptr %11) #15
  ret void
}