; Function Attrs: mustprogress uwtable
define dso_local void @_ZNK4pbrt6Camera8SampleWiERKNS_11InteractionENS_6Point2IfEERNS_18SampledWavelengthsE(ptr dead_on_unwind noalias writable writeonly sret(%"class.pstd::optional.16") align 8 captures(none) %0, ptr noundef nonnull readonly align 8 captures(none) dereferenceable(8) %1, ptr noundef nonnull readonly align 8 captures(none) dereferenceable(80) %2, <2 x float> %3, ptr noundef nonnull readnone align 4 captures(none) dereferenceable(32) %4) local_unnamed_addr #1 align 2 {
  %.val = load i64, ptr %1, align 8, !tbaa !52
  %6 = lshr i64 %.val, 57
  %7 = trunc nuw nsw i64 %6 to i32
  switch i32 %7, label %10 [
    i32 1, label %"_ZNK4pbrt13TaggedPointerIJNS_17PerspectiveCameraENS_18OrthographicCameraENS_15SphericalCameraENS_15RealisticCameraEEE8DispatchIRZNKS_6Camera8SampleWiERKNS_11InteractionENS_6Point2IfEERNS_18SampledWavelengthsEE3$_0EEDcOT_.exit"
    i32 2, label %8
    i32 3, label %9
  ]

8:                                                ; preds = %5
  tail call void @_ZN4pbrt8LogFatalENS_8LogLevelEPKciS2_(i32 noundef 2, ptr noundef nonnull @.str.95, i32 noundef 328, ptr noundef nonnull @.str.102) #30, !noalias !70
  unreachable

9:                                                ; preds = %5
  tail call void @_ZN4pbrt8LogFatalENS_8LogLevelEPKciS2_(i32 noundef 2, ptr noundef nonnull @.str.95, i32 noundef 448, ptr noundef nonnull @.str.103) #30, !noalias !70
  unreachable

10:                                               ; preds = %5
  tail call void @_ZN4pbrt8LogFatalENS_8LogLevelEPKciS2_(i32 noundef 2, ptr noundef nonnull @.str.95, i32 noundef 503, ptr noundef nonnull @.str.104) #30, !noalias !70
  unreachable

"_ZNK4pbrt13TaggedPointerIJNS_17PerspectiveCameraENS_18OrthographicCameraENS_15SphericalCameraENS_15RealisticCameraEEE8DispatchIRZNKS_6Camera8SampleWiERKNS_11InteractionENS_6Point2IfEERNS_18SampledWavelengthsEE3$_0EEDcOT_.exit": ; preds = %5
  %11 = and i64 %.val, 144115188075855871
  %12 = inttoptr i64 %11 to ptr
  tail call void @_ZNK4pbrt17PerspectiveCamera8SampleWiERKNS_11InteractionENS_6Point2IfEERNS_18SampledWavelengthsE(ptr dead_on_unwind writable sret(%"class.pstd::optional.16") align 8 %0, ptr noundef nonnull align 8 dereferenceable(1448) %12, ptr noundef nonnull align 8 dereferenceable(80) %2, <2 x float> %3, ptr nonnull align 4 poison)
  ret void
}